#include <math.h>
#include <stdio.h>
#include <stdlib.h>
#include <string.h>


int main(int argc, char* argv[])
{  
	 
       int number;

 

      

       int reversed_number = 0;

       

     

       int remainder = 0;

       

       scanf("%d",&number);


       while(number != 0){

              remainder = number % 10;

              reversed_number *= 10;

              reversed_number += remainder;

              number /= 10;

       }

 

     

       printf("%d\n",reversed_number);

       



	return 0;
}
    