; ModuleID = '56/1073.c'
source_filename = "56/1073.c"
target datalayout = "e-m:e-p270:32:32-p271:32:32-p272:64:64-i64:64-f80:128-n8:16:32:64-S128"
target triple = "x86_64-pc-linux-gnu"

@.str = private unnamed_addr constant [3 x i8] c"%d\00", align 1
@.str.1 = private unnamed_addr constant [4 x i8] c"%d\0A\00", align 1

; Function Attrs: noinline nounwind uwtable
define dso_local i32 @main(i32 %0, i8** %1) #0 {
  %3 = alloca i32, align 4
  %4 = alloca i32, align 4
  %5 = alloca i8**, align 8
  %6 = alloca i32, align 4
  %7 = alloca i32, align 4
  %8 = alloca i32, align 4
  store i32 0, i32* %3, align 4
  store i32 %0, i32* %4, align 4
  store i8** %1, i8*** %5, align 8
  store i32 0, i32* %7, align 4
  store i32 0, i32* %8, align 4
  %9 = call i32 (i8*, ...) @__isoc99_scanf(i8* getelementptr inbounds ([3 x i8], [3 x i8]* @.str, i64 0, i64 0), i32* %6)
  br label %10

10:                                               ; preds = %13, %2
  %11 = load i32, i32* %6, align 4
  %12 = icmp ne i32 %11, 0
  br i1 %12, label %13, label %23

13:                                               ; preds = %10
  %14 = load i32, i32* %6, align 4
  %15 = srem i32 %14, 10
  store i32 %15, i32* %8, align 4
  %16 = load i32, i32* %7, align 4
  %17 = mul nsw i32 %16, 10
  store i32 %17, i32* %7, align 4
  %18 = load i32, i32* %8, align 4
  %19 = load i32, i32* %7, align 4
  %20 = add nsw i32 %19, %18
  store i32 %20, i32* %7, align 4
  %21 = load i32, i32* %6, align 4
  %22 = sdiv i32 %21, 10
  store i32 %22, i32* %6, align 4
  br label %10

23:                                               ; preds = %10
  %24 = load i32, i32* %7, align 4
  %25 = call i32 (i8*, ...) @printf(i8* getelementptr inbounds ([4 x i8], [4 x i8]* @.str.1, i64 0, i64 0), i32 %24)
  ret i32 0
}

declare dso_local i32 @__isoc99_scanf(i8*, ...) #1

declare dso_local i32 @printf(i8*, ...) #1


!llvm.module.flags = !{!0}
!llvm.ident = !{!1}

!0 = !{i32 1, !"wchar_size", i32 4}
!1 = !{!"clang version 10.0.0-4ubuntu1 "}
